; ModuleID = 'bench/linux/original/cpuinfo.ll'
source_filename = "bench/linux/original/cpuinfo.ll"
target datalayout = "e-m:e-p270:32:32-p271:32:32-p272:64:64-i64:64-i128:128-f80:128-n8:16:32:64-S128"
target triple = "x86_64-unknown-linux-gnu"

module asm ".section\09\22.initcall5.init\22, \22a\22\09\09"
module asm "__initcall__kmod_proc__330_28_proc_cpuinfo_init5:\09\09\09"
module asm ".long\09proc_cpuinfo_init - .\09"
module asm ".previous\09\09\09\09\09"

%struct.proc_ops = type { i32, ptr, ptr, ptr, ptr, ptr, ptr, ptr, ptr, ptr, ptr, ptr }
%struct.seq_operations = type { ptr, ptr, ptr, ptr }

@__UNIQUE_ID___addressable_proc_cpuinfo_init331 = internal global ptr @proc_cpuinfo_init, section ".discard.addressable", align 8
@.str = private unnamed_addr constant [8 x i8] c"cpuinfo\00", align 1
@cpuinfo_proc_ops = internal constant %struct.proc_ops { i32 1, ptr @cpuinfo_open, ptr null, ptr @seq_read_iter, ptr null, ptr @seq_lseek, ptr @seq_release, ptr null, ptr null, ptr null, ptr null, ptr null }, align 8
@cpuinfo_op = external dso_local constant %struct.seq_operations, align 8
@llvm.compiler.used = appending global [1 x ptr] [ptr @__UNIQUE_ID___addressable_proc_cpuinfo_init331], section "llvm.metadata"

; Function Attrs: cold fn_ret_thunk_extern nounwind null_pointer_is_valid optsize
define internal noundef i32 @proc_cpuinfo_init() #0 section ".init.text" align 16 {
  %1 = tail call ptr @proc_create(ptr noundef nonnull @.str, i16 noundef zeroext 0, ptr noundef null, ptr noundef nonnull @cpuinfo_proc_ops) #3
  ret i32 0
}

; Function Attrs: null_pointer_is_valid
declare dso_local ptr @proc_create(ptr noundef, i16 noundef zeroext, ptr noundef, ptr noundef) local_unnamed_addr #1

; Function Attrs: fn_ret_thunk_extern nounwind null_pointer_is_valid
define internal i32 @cpuinfo_open(ptr nocapture readnone %0, ptr noundef %1) #2 align 16 {
  %3 = tail call i32 @seq_open(ptr noundef %1, ptr noundef nonnull @cpuinfo_op) #3
  ret i32 %3
}

; Function Attrs: null_pointer_is_valid
declare dso_local i64 @seq_read_iter(ptr noundef, ptr noundef) #1

; Function Attrs: null_pointer_is_valid
declare dso_local i64 @seq_lseek(ptr noundef, i64 noundef, i32 noundef) #1

; Function Attrs: null_pointer_is_valid
declare dso_local i32 @seq_release(ptr noundef, ptr noundef) #1

; Function Attrs: null_pointer_is_valid
declare dso_local i32 @seq_open(ptr noundef, ptr noundef) local_unnamed_addr #1


!llvm.module.flags = !{!0, !1, !2, !3, !4}

!0 = !{i32 1, !"wchar_size", i32 2}
!1 = !{i32 8, !"cf-protection-branch", i32 1}
!2 = !{i32 4, !"function_return_thunk_extern", i32 1}
!3 = !{i32 4, !"indirect_branch_cs_prefix", i32 1}
!4 = !{i32 4, !"SkipRaxSetup", i32 1}
